target datalayout = "e-m:e-p270:32:32-p271:32:32-p272:64:64-i64:64-i128:128-f80:128-n8:16:32:64-S128"
target triple = "x86_64-pc-linux-gnu"

@.str = private unnamed_addr constant [30 x i8] c"../openssl/crypto/bn/bn_gcd.c\00", align 1
@__func__.BN_mod_inverse = private unnamed_addr constant [15 x i8] c"BN_mod_inverse\00", align 1

; Function Attrs: nounwind uwtable
define ptr @BN_mod_inverse(ptr noundef %0, ptr noundef %1, ptr noundef %2, ptr noundef %3) #0 {
  %5 = alloca ptr, align 8
  %6 = alloca ptr, align 8
  %7 = alloca ptr, align 8
  %8 = alloca ptr, align 8
  %9 = alloca ptr, align 8
  %10 = alloca ptr, align 8
  %11 = alloca ptr, align 8
  %12 = alloca i32, align 4
  %13 = alloca i32, align 4
  store ptr %0, ptr %6, align 8, !tbaa !3
  store ptr %1, ptr %7, align 8, !tbaa !3
  store ptr %2, ptr %8, align 8, !tbaa !3
  store ptr %3, ptr %9, align 8, !tbaa !8
  call void @llvm.lifetime.start.p0(i64 8, ptr %10) #4
  store ptr null, ptr %10, align 8, !tbaa !8
  call void @llvm.lifetime.start.p0(i64 8, ptr %11) #4
  call void @llvm.lifetime.start.p0(i64 4, ptr %12) #4
  store i32 0, ptr %12, align 4, !tbaa !12
  %14 = load ptr, ptr %9, align 8, !tbaa !8
  %15 = icmp eq ptr %14, null
  br i1 %15, label %16, label %22

16:                                               ; preds = %4
  %17 = call ptr @BN_CTX_new_ex(ptr noundef null)
  store ptr %17, ptr %10, align 8, !tbaa !8
  store ptr %17, ptr %9, align 8, !tbaa !8
  %18 = load ptr, ptr %9, align 8, !tbaa !8
  %19 = icmp eq ptr %18, null
  br i1 %19, label %20, label %21

20:                                               ; preds = %16
  call void @ERR_new()
  call void @ERR_set_debug(ptr noundef @.str, i32 noundef 526, ptr noundef @__func__.BN_mod_inverse)
  call void (i32, i32, ptr, ...) @ERR_set_error(i32 noundef 3, i32 noundef 524291, ptr noundef null)
  store ptr null, ptr %5, align 8
  store i32 1, ptr %13, align 4
  br label %34

21:                                               ; preds = %16
  br label %22

22:                                               ; preds = %21, %4
  %23 = load ptr, ptr %6, align 8, !tbaa !3
  %24 = load ptr, ptr %7, align 8, !tbaa !3
  %25 = load ptr, ptr %8, align 8, !tbaa !3
  %26 = load ptr, ptr %9, align 8, !tbaa !8
  %27 = call ptr @int_bn_mod_inverse(ptr noundef %23, ptr noundef %24, ptr noundef %25, ptr noundef %26, ptr noundef %12)
  store ptr %27, ptr %11, align 8, !tbaa !3
  %28 = load i32, ptr %12, align 4, !tbaa !12
  %29 = icmp ne i32 %28, 0
  br i1 %29, label %30, label %31

30:                                               ; preds = %22
  call void @ERR_new()
  call void @ERR_set_debug(ptr noundef @.str, i32 noundef 533, ptr noundef @__func__.BN_mod_inverse)
  call void (i32, i32, ptr, ...) @ERR_set_error(i32 noundef 3, i32 noundef 108, ptr noundef null)
  br label %31

31:                                               ; preds = %30, %22
  %32 = load ptr, ptr %10, align 8, !tbaa !8
  call void @BN_CTX_free(ptr noundef %32)
  %33 = load ptr, ptr %11, align 8, !tbaa !3
  store ptr %33, ptr %5, align 8
  store i32 1, ptr %13, align 4
  br label %34

34:                                               ; preds = %31, %20
  call void @llvm.lifetime.end.p0(i64 4, ptr %12) #4
  call void @llvm.lifetime.end.p0(i64 8, ptr %11) #4
  call void @llvm.lifetime.end.p0(i64 8, ptr %10) #4
  %35 = load ptr, ptr %5, align 8
  ret ptr %35
}