; Function Attrs: nounwind uwtable
define ptr @BN_mod_inverse(ptr noundef %0, ptr noundef %1, ptr noundef %2, ptr noundef %3) local_unnamed_addr #0 {
  %5 = alloca i32, align 4
  call void @llvm.lifetime.start.p0(i64 4, ptr nonnull %5) #4
  %6 = icmp eq ptr %3, null
  br i1 %6, label %7, label %11

7:                                                ; preds = %4
  %8 = tail call ptr @BN_CTX_new_ex(ptr noundef null) #4
  %9 = icmp eq ptr %8, null
  br i1 %9, label %10, label %11

10:                                               ; preds = %7
  tail call void @ERR_new() #4
  tail call void @ERR_set_debug(ptr noundef nonnull @.str, i32 noundef 526, ptr noundef nonnull @__func__.BN_mod_inverse) #4
  tail call void (i32, i32, ptr, ...) @ERR_set_error(i32 noundef 3, i32 noundef 524291, ptr noundef null) #4
  br label %16

11:                                               ; preds = %7, %4
  %.010 = phi ptr [ %8, %7 ], [ %3, %4 ]
  %.09 = phi ptr [ %8, %7 ], [ null, %4 ]
  %12 = call ptr @int_bn_mod_inverse(ptr noundef %0, ptr noundef %1, ptr noundef %2, ptr noundef nonnull %.010, ptr noundef nonnull %5)
  %13 = load i32, ptr %5, align 4, !tbaa !3
  %.not = icmp eq i32 %13, 0
  br i1 %.not, label %15, label %14

14:                                               ; preds = %11
  tail call void @ERR_new() #4
  tail call void @ERR_set_debug(ptr noundef nonnull @.str, i32 noundef 533, ptr noundef nonnull @__func__.BN_mod_inverse) #4
  tail call void (i32, i32, ptr, ...) @ERR_set_error(i32 noundef 3, i32 noundef 108, ptr noundef null) #4
  br label %15

15:                                               ; preds = %14, %11
  tail call void @BN_CTX_free(ptr noundef %.09) #4
  br label %16

16:                                               ; preds = %15, %10
  %.0 = phi ptr [ null, %10 ], [ %12, %15 ]
  call void @llvm.lifetime.end.p0(i64 4, ptr nonnull %5) #4
  ret ptr %.0
}